; Function Attrs: nounwind uwtable
define dso_local noundef ptr @list_create(ptr noundef %0) #0 {
  %2 = tail call ptr @slurm_xcalloc(i64 noundef 1, i64 noundef 4064, i1 noundef zeroext true, i1 noundef zeroext false, ptr noundef nonnull @.str, i32 noundef 158, ptr noundef nonnull @__func__.list_create) #9
  store i32 -559038737, ptr %2, align 8
  %3 = getelementptr inbounds nuw i8, ptr %2, i64 8
  store ptr null, ptr %3, align 8
  %4 = getelementptr inbounds nuw i8, ptr %2, i64 16
  store ptr %3, ptr %4, align 8
  %5 = getelementptr inbounds nuw i8, ptr %2, i64 24
  store ptr null, ptr %5, align 8
  %6 = getelementptr inbounds nuw i8, ptr %2, i64 32
  store ptr %0, ptr %6, align 8
  %7 = getelementptr inbounds nuw i8, ptr %2, i64 4
  store i32 0, ptr %7, align 4
  %8 = getelementptr inbounds nuw i8, ptr %2, i64 40
  %9 = tail call i32 @pthread_rwlock_init(ptr noundef nonnull %8, ptr noundef null) #9
  %.not = icmp eq i32 %9, 0
  br i1 %.not, label %12, label %10

10:                                               ; preds = %1
  %11 = tail call ptr @__errno_location() #10
  store i32 %9, ptr %11, align 4
  tail call void (ptr, ...) @fatal_abort(ptr noundef nonnull @.str.1, ptr noundef nonnull @__func__.list_create) #11
  unreachable

12:                                               ; preds = %1
  %13 = getelementptr inbounds nuw i8, ptr %2, i64 104
  store ptr null, ptr %13, align 8
  %14 = getelementptr inbounds nuw i8, ptr %2, i64 112
  %15 = getelementptr inbounds nuw i8, ptr %2, i64 96
  store ptr %14, ptr %15, align 8
  br label %17

16:                                               ; preds = %17
  ret ptr %2

17:                                               ; preds = %12, %17
  %indvars.iv = phi i64 [ 0, %12 ], [ %indvars.iv.next, %17 ]
  %indvars.iv.next = add nuw nsw i64 %indvars.iv, 1
  %18 = getelementptr inbounds nuw [0 x %struct.listNode], ptr %14, i64 0, i64 %indvars.iv.next
  %19 = shl nuw nsw i64 %indvars.iv, 4
  %20 = or disjoint i64 %19, 8
  %21 = getelementptr inbounds nuw i8, ptr %14, i64 %20
  store ptr %18, ptr %21, align 8
  %exitcond.not = icmp eq i64 %indvars.iv.next, 246
  br i1 %exitcond.not, label %16, label %17, !llvm.loop !8
}